target datalayout = "e-m:e-p270:32:32-p271:32:32-p272:64:64-i64:64-i128:128-f80:128-n8:16:32:64-S128"
target triple = "x86_64-pc-linux-gnu"

; Function Attrs: nounwind uwtable
define i64 @OPENSSL_strnlen(ptr noundef %0, i64 noundef %1) #0 {
  %3 = alloca ptr, align 8
  %4 = alloca i64, align 8
  %5 = alloca ptr, align 8
  store ptr %0, ptr %3, align 8, !tbaa !3
  store i64 %1, ptr %4, align 8, !tbaa !10
  call void @llvm.lifetime.start.p0(i64 8, ptr %5) #8
  %6 = load ptr, ptr %3, align 8, !tbaa !3
  store ptr %6, ptr %5, align 8, !tbaa !3
  br label %7

7:                                                ; preds = %19, %2
  %8 = load i64, ptr %4, align 8, !tbaa !10
  %9 = add i64 %8, -1
  store i64 %9, ptr %4, align 8, !tbaa !10
  %10 = icmp ne i64 %8, 0
  br i1 %10, label %11, label %16

11:                                               ; preds = %7
  %12 = load ptr, ptr %5, align 8, !tbaa !3
  %13 = load i8, ptr %12, align 1, !tbaa !12
  %14 = sext i8 %13 to i32
  %15 = icmp ne i32 %14, 0
  br label %16

16:                                               ; preds = %11, %7
  %17 = phi i1 [ false, %7 ], [ %15, %11 ]
  br i1 %17, label %18, label %22

18:                                               ; preds = %16
  br label %19

19:                                               ; preds = %18
  %20 = load ptr, ptr %5, align 8, !tbaa !3
  %21 = getelementptr inbounds nuw i8, ptr %20, i32 1
  store ptr %21, ptr %5, align 8, !tbaa !3
  br label %7, !llvm.loop !13

22:                                               ; preds = %16
  %23 = load ptr, ptr %5, align 8, !tbaa !3
  %24 = load ptr, ptr %3, align 8, !tbaa !3
  %25 = ptrtoint ptr %23 to i64
  %26 = ptrtoint ptr %24 to i64
  %27 = sub i64 %25, %26
  call void @llvm.lifetime.end.p0(i64 8, ptr %5) #8
  ret i64 %27
}

; Function Attrs: nounwind uwtable
define noalias ptr @CRYPTO_strndup(ptr noundef %0, i64 noundef %1, ptr noundef %2, i32 noundef %3) #0 {
  %5 = alloca ptr, align 8
  %6 = alloca ptr, align 8
  %7 = alloca i64, align 8
  %8 = alloca ptr, align 8
  %9 = alloca i32, align 4
  %10 = alloca i64, align 8
  %11 = alloca ptr, align 8
  %12 = alloca i32, align 4
  store ptr %0, ptr %6, align 8, !tbaa !3
  store i64 %1, ptr %7, align 8, !tbaa !10
  store ptr %2, ptr %8, align 8, !tbaa !3
  store i32 %3, ptr %9, align 4, !tbaa !8
  call void @llvm.lifetime.start.p0(i64 8, ptr %10) #8
  call void @llvm.lifetime.start.p0(i64 8, ptr %11) #8
  %13 = load ptr, ptr %6, align 8, !tbaa !3
  %14 = icmp eq ptr %13, null
  br i1 %14, label %15, label %16

15:                                               ; preds = %4
  store ptr null, ptr %5, align 8
  store i32 1, ptr %12, align 4
  br label %36

16:                                               ; preds = %4
  %17 = load ptr, ptr %6, align 8, !tbaa !3
  %18 = load i64, ptr %7, align 8, !tbaa !10
  %19 = call i64 @OPENSSL_strnlen(ptr noundef %17, i64 noundef %18)
  store i64 %19, ptr %10, align 8, !tbaa !10
  %20 = load i64, ptr %10, align 8, !tbaa !10
  %21 = add i64 %20, 1
  %22 = load ptr, ptr %8, align 8, !tbaa !3
  %23 = load i32, ptr %9, align 4, !tbaa !8
  %24 = call noalias ptr @CRYPTO_malloc(i64 noundef %21, ptr noundef %22, i32 noundef %23)
  store ptr %24, ptr %11, align 8, !tbaa !3
  %25 = load ptr, ptr %11, align 8, !tbaa !3
  %26 = icmp ne ptr %25, null
  br i1 %26, label %27, label %34

27:                                               ; preds = %16
  %28 = load ptr, ptr %11, align 8, !tbaa !3
  %29 = load ptr, ptr %6, align 8, !tbaa !3
  %30 = load i64, ptr %10, align 8, !tbaa !10
  call void @llvm.memcpy.p0.p0.i64(ptr align 1 %28, ptr align 1 %29, i64 %30, i1 false)
  %31 = load ptr, ptr %11, align 8, !tbaa !3
  %32 = load i64, ptr %10, align 8, !tbaa !10
  %33 = getelementptr inbounds nuw i8, ptr %31, i64 %32
  store i8 0, ptr %33, align 1, !tbaa !12
  br label %34

34:                                               ; preds = %27, %16
  %35 = load ptr, ptr %11, align 8, !tbaa !3
  store ptr %35, ptr %5, align 8
  store i32 1, ptr %12, align 4
  br label %36

36:                                               ; preds = %34, %15
  call void @llvm.lifetime.end.p0(i64 8, ptr %11) #8
  call void @llvm.lifetime.end.p0(i64 8, ptr %10) #8
  %37 = load ptr, ptr %5, align 8
  ret ptr %37
}