; Function Attrs: nounwind uwtable
define noalias ptr @CRYPTO_strndup(ptr noundef %0, i64 noundef %1, ptr noundef %2, i32 noundef %3) local_unnamed_addr #0 {
  %5 = icmp eq ptr %0, null
  br i1 %5, label %18, label %6

6:                                                ; preds = %4
  %.not7.i = icmp eq i64 %1, 0
  br i1 %.not7.i, label %OPENSSL_strnlen.exit, label %.lr.ph.preheader.i

.lr.ph.preheader.i:                               ; preds = %6
  %scevgep.i = getelementptr i8, ptr %0, i64 %1
  br label %.lr.ph.i

.lr.ph.i:                                         ; preds = %8, %.lr.ph.preheader.i
  %.in.i = phi i64 [ %9, %8 ], [ %1, %.lr.ph.preheader.i ]
  %.08.i = phi ptr [ %10, %8 ], [ %0, %.lr.ph.preheader.i ]
  %7 = load i8, ptr %.08.i, align 1, !tbaa !3
  %.not6.i = icmp eq i8 %7, 0
  br i1 %.not6.i, label %OPENSSL_strnlen.exit, label %8

8:                                                ; preds = %.lr.ph.i
  %9 = add i64 %.in.i, -1
  %10 = getelementptr inbounds nuw i8, ptr %.08.i, i64 1
  %.not.i = icmp eq i64 %9, 0
  br i1 %.not.i, label %OPENSSL_strnlen.exit, label %.lr.ph.i, !llvm.loop !6

OPENSSL_strnlen.exit:                             ; preds = %.lr.ph.i, %8, %6
  %.0.lcssa.i = phi ptr [ %0, %6 ], [ %.08.i, %.lr.ph.i ], [ %scevgep.i, %8 ]
  %11 = ptrtoint ptr %.0.lcssa.i to i64
  %12 = ptrtoint ptr %0 to i64
  %13 = sub i64 %11, %12
  %14 = add i64 %13, 1
  %15 = tail call noalias ptr @CRYPTO_malloc(i64 noundef %14, ptr noundef %2, i32 noundef %3) #16
  %.not = icmp eq ptr %15, null
  br i1 %.not, label %18, label %16

16:                                               ; preds = %OPENSSL_strnlen.exit
  tail call void @llvm.memcpy.p0.p0.i64(ptr nonnull align 1 %15, ptr nonnull align 1 %0, i64 %13, i1 false)
  %17 = getelementptr inbounds nuw i8, ptr %15, i64 %13
  store i8 0, ptr %17, align 1, !tbaa !3
  br label %18

18:                                               ; preds = %OPENSSL_strnlen.exit, %16, %4
  %.0 = phi ptr [ null, %4 ], [ %15, %16 ], [ null, %OPENSSL_strnlen.exit ]
  ret ptr %.0
}